; Function Attrs: nounwind uwtable
define void @dt_film_init(ptr noundef %0) local_unnamed_addr #0 {
  %2 = getelementptr inbounds nuw i8, ptr %0, i64 520
  %3 = tail call i32 @pthread_mutex_init(ptr noundef nonnull %2, ptr noundef null) #11
  %4 = getelementptr inbounds nuw i8, ptr %0, i64 4
  store i8 0, ptr %4, align 4, !tbaa !6
  %5 = getelementptr inbounds nuw i8, ptr %0, i64 560
  store i32 0, ptr %0, align 8, !tbaa !9
  tail call void @llvm.memset.p0.i64(ptr noundef nonnull align 8 dereferenceable(20) %5, i8 0, i64 20, i1 false)
  ret void
}